target datalayout = "e-m:e-p270:32:32-p271:32:32-p272:64:64-i64:64-i128:128-f80:128-n8:16:32:64-S128"
target triple = "x86_64-pc-linux-gnu"

%class.ClassVerifier = type { ptr, ptr, ptr, ptr, ptr, %class.ResourceHashtable, %class.ErrorContext, ptr, %class.methodHandle, %class.VerificationType }
%class.ResourceHashtable = type { %class.ResourceHashtableBase.base, [4 x i8] }
%class.ResourceHashtableBase.base = type <{ %class.FixedResourceHashtableStorage, i32 }>
%class.FixedResourceHashtableStorage = type { [1007 x ptr] }
%class.ErrorContext = type { i32, i32, %class.TypeOrigin, %class.TypeOrigin }
%class.TypeOrigin = type { i32, i32, ptr, %class.VerificationType }
%class.methodHandle = type { ptr, ptr }
%class.VerificationType = type { %union.anon.3 }
%union.anon.3 = type { ptr }
%class.ThreadShadow = type <{ ptr, ptr, ptr, i32, [4 x i8] }>

; Function Attrs: mustprogress nounwind uwtable
define linkonce_odr hidden noundef ptr @_ZNK13ClassVerifier6resultEv(ptr noundef nonnull align 8 dereferenceable(8192) %0) #1 comdat align 2 {
  %2 = alloca ptr, align 8
  store ptr %0, ptr %2, align 8
  %3 = load ptr, ptr %2, align 8
  %4 = getelementptr inbounds %class.ClassVerifier, ptr %3, i32 0, i32 3
  %5 = load ptr, ptr %4, align 8
  ret ptr %5
}

; Function Attrs: mustprogress nounwind uwtable
define linkonce_odr hidden void @_ZN16VerificationTypeC2Em(ptr noundef nonnull align 8 dereferenceable(8) %0, i64 noundef %1) unnamed_addr #1 comdat align 2 {
  %3 = alloca ptr, align 8
  %4 = alloca i64, align 8
  store ptr %0, ptr %3, align 8
  store i64 %1, ptr %4, align 8
  %5 = load ptr, ptr %3, align 8
  %6 = load i64, ptr %4, align 8
  %7 = getelementptr inbounds %class.VerificationType, ptr %5, i32 0, i32 0
  store i64 %6, ptr %7, align 8
  ret void
}

; Function Attrs: mustprogress nounwind uwtable
define linkonce_odr hidden noundef zeroext i1 @_ZNK13ClassVerifier9has_errorEv(ptr noundef nonnull align 8 dereferenceable(8192) %0) #1 comdat align 2 {
  %2 = alloca ptr, align 8
  store ptr %0, ptr %2, align 8
  %3 = load ptr, ptr %2, align 8
  %4 = call noundef ptr @_ZNK13ClassVerifier6resultEv(ptr noundef nonnull align 8 dereferenceable(8192) %3)
  %5 = icmp ne ptr %4, null
  ret i1 %5
}

; Function Attrs: mustprogress nounwind uwtable
define linkonce_odr hidden noundef zeroext i1 @_ZNK12ThreadShadow21has_pending_exceptionEv(ptr noundef nonnull align 8 dereferenceable(28) %0) #1 comdat align 2 {
  %2 = alloca ptr, align 8
  store ptr %0, ptr %2, align 8
  %3 = load ptr, ptr %2, align 8
  %4 = getelementptr inbounds %class.ThreadShadow, ptr %3, i32 0, i32 1
  %5 = load ptr, ptr %4, align 8
  %6 = icmp ne ptr %5, null
  ret i1 %6
}

; Function Attrs: mustprogress nounwind uwtable
define linkonce_odr hidden ptr @_ZN16VerificationType11double_typeEv() #1 comdat align 2 {
  %1 = alloca %class.VerificationType, align 8
  call void @_ZN16VerificationTypeC2Em(ptr noundef nonnull align 8 dereferenceable(8) %1, i64 noundef 197121)
  %2 = getelementptr inbounds %class.VerificationType, ptr %1, i32 0, i32 0
  %3 = getelementptr inbounds %union.anon.3, ptr %2, i32 0, i32 0
  %4 = load ptr, ptr %3, align 8
  ret ptr %4
}

; Function Attrs: mustprogress nounwind uwtable
define linkonce_odr hidden ptr @_ZN16VerificationType12double2_typeEv() #1 comdat align 2 {
  %1 = alloca %class.VerificationType, align 8
  call void @_ZN16VerificationTypeC2Em(ptr noundef nonnull align 8 dereferenceable(8) %1, i64 noundef 918529)
  %2 = getelementptr inbounds %class.VerificationType, ptr %1, i32 0, i32 0
  %3 = getelementptr inbounds %union.anon.3, ptr %2, i32 0, i32 0
  %4 = load ptr, ptr %3, align 8
  ret ptr %4
}

; Function Attrs: mustprogress nounwind uwtable
define hidden void @_ZN13ClassVerifier13verify_dstoreEiP13StackMapFrameP10JavaThread(ptr noundef nonnull align 8 dereferenceable(8192) %0, i32 noundef %1, ptr noundef %2, ptr noundef %3) #1 align 2 {
  %5 = alloca ptr, align 8
  %6 = alloca i32, align 4
  %7 = alloca ptr, align 8
  %8 = alloca ptr, align 8
  %9 = alloca %class.VerificationType, align 8
  %10 = alloca %class.VerificationType, align 8
  %11 = alloca %class.VerificationType, align 8
  %12 = alloca %class.VerificationType, align 8
  store ptr %0, ptr %5, align 8
  store i32 %1, ptr %6, align 4
  store ptr %2, ptr %7, align 8
  store ptr %3, ptr %8, align 8
  %13 = load ptr, ptr %5, align 8
  %14 = load ptr, ptr %7, align 8
  %15 = call ptr @_ZN16VerificationType12double2_typeEv()
  %16 = getelementptr inbounds %class.VerificationType, ptr %9, i32 0, i32 0
  %17 = getelementptr inbounds %union.anon.3, ptr %16, i32 0, i32 0
  store ptr %15, ptr %17, align 8
  %18 = call ptr @_ZN16VerificationType11double_typeEv()
  %19 = getelementptr inbounds %class.VerificationType, ptr %10, i32 0, i32 0
  %20 = getelementptr inbounds %union.anon.3, ptr %19, i32 0, i32 0
  store ptr %18, ptr %20, align 8
  %21 = load ptr, ptr %8, align 8
  %22 = getelementptr inbounds %class.VerificationType, ptr %9, i32 0, i32 0
  %23 = getelementptr inbounds %union.anon.3, ptr %22, i32 0, i32 0
  %24 = load ptr, ptr %23, align 8
  %25 = getelementptr inbounds %class.VerificationType, ptr %10, i32 0, i32 0
  %26 = getelementptr inbounds %union.anon.3, ptr %25, i32 0, i32 0
  %27 = load ptr, ptr %26, align 8
  call void @_ZN13StackMapFrame11pop_stack_2E16VerificationTypeS0_P10JavaThread(ptr noundef nonnull align 8 dereferenceable(48) %14, ptr %24, ptr %27, ptr noundef %21)
  %28 = load ptr, ptr %8, align 8
  %29 = call noundef zeroext i1 @_ZNK12ThreadShadow21has_pending_exceptionEv(ptr noundef nonnull align 8 dereferenceable(28) %28)
  br i1 %29, label %30, label %31

30:                                               ; preds = %4
  br label %56

31:                                               ; preds = %4
  %32 = call noundef zeroext i1 @_ZNK13ClassVerifier9has_errorEv(ptr noundef nonnull align 8 dereferenceable(8192) %13)
  br i1 %32, label %33, label %34

33:                                               ; preds = %31
  br label %56

34:                                               ; preds = %31
  %35 = load ptr, ptr %7, align 8
  %36 = load i32, ptr %6, align 4
  %37 = call ptr @_ZN16VerificationType11double_typeEv()
  %38 = getelementptr inbounds %class.VerificationType, ptr %11, i32 0, i32 0
  %39 = getelementptr inbounds %union.anon.3, ptr %38, i32 0, i32 0
  store ptr %37, ptr %39, align 8
  %40 = call ptr @_ZN16VerificationType12double2_typeEv()
  %41 = getelementptr inbounds %class.VerificationType, ptr %12, i32 0, i32 0
  %42 = getelementptr inbounds %union.anon.3, ptr %41, i32 0, i32 0
  store ptr %40, ptr %42, align 8
  %43 = load ptr, ptr %8, align 8
  %44 = getelementptr inbounds %class.VerificationType, ptr %11, i32 0, i32 0
  %45 = getelementptr inbounds %union.anon.3, ptr %44, i32 0, i32 0
  %46 = load ptr, ptr %45, align 8
  %47 = getelementptr inbounds %class.VerificationType, ptr %12, i32 0, i32 0
  %48 = getelementptr inbounds %union.anon.3, ptr %47, i32 0, i32 0
  %49 = load ptr, ptr %48, align 8
  call void @_ZN13StackMapFrame11set_local_2Ei16VerificationTypeS0_P10JavaThread(ptr noundef nonnull align 8 dereferenceable(48) %35, i32 noundef %36, ptr %46, ptr %49, ptr noundef %43)
  %50 = load ptr, ptr %8, align 8
  %51 = call noundef zeroext i1 @_ZNK12ThreadShadow21has_pending_exceptionEv(ptr noundef nonnull align 8 dereferenceable(28) %50)
  br i1 %51, label %52, label %53

52:                                               ; preds = %34
  br label %56

53:                                               ; preds = %34
  %54 = call noundef zeroext i1 @_ZNK13ClassVerifier9has_errorEv(ptr noundef nonnull align 8 dereferenceable(8192) %13)
  br i1 %54, label %55, label %56

55:                                               ; preds = %53
  br label %56

56:                                               ; preds = %55, %53, %52, %33, %30
  ret void
}