; Function Attrs: mustprogress nounwind uwtable
define hidden void @_ZN13ClassVerifier13verify_dstoreEiP13StackMapFrameP10JavaThread(ptr nocapture noundef nonnull readonly align 8 dereferenceable(8192) %0, i32 noundef %1, ptr noundef nonnull %2, ptr noundef %3) local_unnamed_addr #1 align 2 {
  tail call void @_ZN13StackMapFrame11pop_stack_2E16VerificationTypeS0_P10JavaThread(ptr noundef nonnull align 8 dereferenceable(48) %2, ptr nonnull inttoptr (i64 918529 to ptr), ptr nonnull inttoptr (i64 197121 to ptr), ptr noundef %3)
  %5 = getelementptr inbounds i8, ptr %3, i64 8
  %6 = load ptr, ptr %5, align 8
  %.not = icmp eq ptr %6, null
  %7 = getelementptr inbounds i8, ptr %0, i64 24
  %8 = load ptr, ptr %7, align 8
  %.not10 = icmp eq ptr %8, null
  %or.cond = select i1 %.not, i1 %.not10, i1 false
  br i1 %or.cond, label %9, label %10

9:                                                ; preds = %4
  tail call void @_ZN13StackMapFrame11set_local_2Ei16VerificationTypeS0_P10JavaThread(ptr noundef nonnull align 8 dereferenceable(48) %2, i32 noundef %1, ptr nonnull inttoptr (i64 197121 to ptr), ptr nonnull inttoptr (i64 918529 to ptr), ptr noundef nonnull %3) #20
  br label %10

10:                                               ; preds = %9, %4
  ret void
}